target datalayout = "e-m:e-p270:32:32-p271:32:32-p272:64:64-i64:64-i128:128-f80:128-n8:16:32:64-S128"
target triple = "x86_64-pc-linux-gnu"

%struct._zend_output_globals = type { %struct._zend_stack, ptr, ptr, ptr, i32, i32 }
%struct._zend_stack = type { i32, i32, i32, ptr }
%struct._zend_array = type { %struct._zend_refcounted_h, %union.anon.0, i32, %union.anon.1, i32, i32, i32, i32, i64, ptr }
%struct._zend_refcounted_h = type { i32, %union.anon }
%union.anon = type { i32 }
%union.anon.0 = type { i32 }
%union.anon.1 = type { ptr }
%struct._zend_executor_globals = type { %struct._zval_struct, %struct._zval_struct, [32 x ptr], ptr, ptr, %struct._zend_array, %struct._zend_array, ptr, i32, i8, %struct._zval_struct, i32, ptr, ptr, ptr, ptr, ptr, ptr, i64, ptr, ptr, i32, ptr, i32, i64, i32, i32, i32, i8, i8, %struct.zend_atomic_bool_s, %struct.zend_atomic_bool_s, ptr, i64, ptr, ptr, %struct._zend_array, %struct._zend_array, i32, i8, %struct._zval_struct, %struct._zval_struct, %struct._zend_stack, %struct._zend_stack, %struct._zend_stack, ptr, i32, i32, i64, ptr, ptr, ptr, %struct._zend_objects_store, %struct._zend_lazy_objects_store, ptr, ptr, ptr, [3 x %struct._zend_op], ptr, i8, i8, i64, i32, i32, ptr, [16 x %struct._HashTableIterator], ptr, %union._zend_function, %struct._zend_op, %struct._zend_array, i64, %struct.zend_get_gc_buffer, ptr, ptr, ptr, i64, i8, i32, ptr, ptr, i64, %struct._zend_call_stack, i64, i64, %struct._zend_strtod_state, [6 x ptr] }
%struct.zend_atomic_bool_s = type { i8 }
%struct._zval_struct = type { %union._zend_value, %union.anon.4, %union.anon.7 }
%union._zend_value = type { i64 }
%union.anon.4 = type { i32 }
%union.anon.7 = type { i32 }
%struct._zend_objects_store = type { ptr, i32, i32, i32 }
%struct._zend_lazy_objects_store = type { %struct._zend_array }
%struct._HashTableIterator = type { ptr, i32, i32 }
%union._zend_function = type { %struct._zend_op_array }
%struct._zend_op_array = type { i8, [3 x i8], i32, ptr, ptr, ptr, i32, i32, ptr, ptr, ptr, ptr, i32, ptr, i32, i32, i32, ptr, ptr, ptr, ptr, ptr, i32, i32, ptr, ptr, ptr, i32, i32, i32, i32, ptr, ptr, [6 x ptr] }
%struct._zend_op = type { ptr, %union._znode_op, %union._znode_op, %union._znode_op, i32, i32, i8, i8, i8, i8 }
%union._znode_op = type { i32 }
%struct.zend_get_gc_buffer = type { ptr, ptr, ptr }
%struct._zend_call_stack = type { ptr, i64 }
%struct._zend_strtod_state = type { [8 x ptr], ptr, ptr }
%struct._zend_string = type { %struct._zend_refcounted_h, i64, i64, [1 x i8] }
%struct._php_output_context = type { i32, %struct._php_output_buffer, %struct._php_output_buffer }
%struct._php_output_buffer = type { ptr, i64, i64, i32 }
%struct._php_output_handler = type { ptr, i32, i32, i64, %struct._php_output_buffer, ptr, ptr, %union.anon.2 }
%union.anon.2 = type { ptr }
%struct._zend_execute_data = type { ptr, ptr, ptr, ptr, %struct._zval_struct, ptr, ptr, ptr, ptr }

@output_globals = dso_local global %struct._zend_output_globals zeroinitializer, align 8
@.str = private unnamed_addr constant [15 x i8] c"ref.outcontrol\00", align 1
@executor_globals = external global %struct._zend_executor_globals, align 8
@.str.11 = private unnamed_addr constant [45 x i8] c"Failed to delete buffer. No buffer to delete\00", align 1
@.str.12 = private unnamed_addr constant [35 x i8] c"Failed to delete buffer of %s (%d)\00", align 1

; Function Attrs: inlinehint nounwind uwtable
define internal void @php_output_context_dtor(ptr noundef %0) #1 {
  %2 = alloca ptr, align 8
  store ptr %0, ptr %2, align 8, !tbaa !69
  %3 = load ptr, ptr %2, align 8, !tbaa !69
  %4 = getelementptr inbounds nuw %struct._php_output_context, ptr %3, i32 0, i32 1
  %5 = getelementptr inbounds nuw %struct._php_output_buffer, ptr %4, i32 0, i32 3
  %6 = load i32, ptr %5, align 8
  %7 = and i32 %6, 1
  %8 = icmp ne i32 %7, 0
  br i1 %8, label %9, label %23

9:                                                ; preds = %1
  %10 = load ptr, ptr %2, align 8, !tbaa !69
  %11 = getelementptr inbounds nuw %struct._php_output_context, ptr %10, i32 0, i32 1
  %12 = getelementptr inbounds nuw %struct._php_output_buffer, ptr %11, i32 0, i32 0
  %13 = load ptr, ptr %12, align 8, !tbaa !61
  %14 = icmp ne ptr %13, null
  br i1 %14, label %15, label %23

15:                                               ; preds = %9
  %16 = load ptr, ptr %2, align 8, !tbaa !69
  %17 = getelementptr inbounds nuw %struct._php_output_context, ptr %16, i32 0, i32 1
  %18 = getelementptr inbounds nuw %struct._php_output_buffer, ptr %17, i32 0, i32 0
  %19 = load ptr, ptr %18, align 8, !tbaa !61
  call void @_efree(ptr noundef %19)
  %20 = load ptr, ptr %2, align 8, !tbaa !69
  %21 = getelementptr inbounds nuw %struct._php_output_context, ptr %20, i32 0, i32 1
  %22 = getelementptr inbounds nuw %struct._php_output_buffer, ptr %21, i32 0, i32 0
  store ptr null, ptr %22, align 8, !tbaa !61
  br label %23

23:                                               ; preds = %15, %9, %1
  %24 = load ptr, ptr %2, align 8, !tbaa !69
  %25 = getelementptr inbounds nuw %struct._php_output_context, ptr %24, i32 0, i32 2
  %26 = getelementptr inbounds nuw %struct._php_output_buffer, ptr %25, i32 0, i32 3
  %27 = load i32, ptr %26, align 8
  %28 = and i32 %27, 1
  %29 = icmp ne i32 %28, 0
  br i1 %29, label %30, label %44

30:                                               ; preds = %23
  %31 = load ptr, ptr %2, align 8, !tbaa !69
  %32 = getelementptr inbounds nuw %struct._php_output_context, ptr %31, i32 0, i32 2
  %33 = getelementptr inbounds nuw %struct._php_output_buffer, ptr %32, i32 0, i32 0
  %34 = load ptr, ptr %33, align 8, !tbaa !67
  %35 = icmp ne ptr %34, null
  br i1 %35, label %36, label %44

36:                                               ; preds = %30
  %37 = load ptr, ptr %2, align 8, !tbaa !69
  %38 = getelementptr inbounds nuw %struct._php_output_context, ptr %37, i32 0, i32 2
  %39 = getelementptr inbounds nuw %struct._php_output_buffer, ptr %38, i32 0, i32 0
  %40 = load ptr, ptr %39, align 8, !tbaa !67
  call void @_efree(ptr noundef %40)
  %41 = load ptr, ptr %2, align 8, !tbaa !69
  %42 = getelementptr inbounds nuw %struct._php_output_context, ptr %41, i32 0, i32 2
  %43 = getelementptr inbounds nuw %struct._php_output_buffer, ptr %42, i32 0, i32 0
  store ptr null, ptr %43, align 8, !tbaa !67
  br label %44

44:                                               ; preds = %36, %30, %23
  ret void
}

; Function Attrs: inlinehint nounwind uwtable
define internal void @php_output_context_init(ptr noundef %0, i32 noundef %1) #1 {
  %3 = alloca ptr, align 8
  %4 = alloca i32, align 4
  store ptr %0, ptr %3, align 8, !tbaa !69
  store i32 %1, ptr %4, align 4, !tbaa !57
  %5 = load ptr, ptr %3, align 8, !tbaa !69
  call void @llvm.memset.p0.i64(ptr align 8 %5, i8 0, i64 72, i1 false)
  %6 = load i32, ptr %4, align 4, !tbaa !57
  %7 = load ptr, ptr %3, align 8, !tbaa !69
  %8 = getelementptr inbounds nuw %struct._php_output_context, ptr %7, i32 0, i32 0
  store i32 %6, ptr %8, align 8, !tbaa !71
  ret void
}

; Function Attrs: nounwind uwtable
define dso_local i32 @php_output_clean() #0 {
  %1 = alloca i32, align 4
  %2 = alloca %struct._php_output_context, align 8
  %3 = alloca i32, align 4
  call void @llvm.lifetime.start.p0(i64 72, ptr %2) #15
  %4 = load ptr, ptr getelementptr inbounds nuw (%struct._zend_output_globals, ptr @output_globals, i32 0, i32 1), align 8, !tbaa !29
  %5 = icmp ne ptr %4, null
  br i1 %5, label %6, label %15

6:                                                ; preds = %0
  %7 = load ptr, ptr getelementptr inbounds nuw (%struct._zend_output_globals, ptr @output_globals, i32 0, i32 1), align 8, !tbaa !29
  %8 = getelementptr inbounds nuw %struct._php_output_handler, ptr %7, i32 0, i32 1
  %9 = load i32, ptr %8, align 8, !tbaa !65
  %10 = and i32 %9, 16
  %11 = icmp ne i32 %10, 0
  br i1 %11, label %12, label %15

12:                                               ; preds = %6
  call void @php_output_context_init(ptr noundef %2, i32 noundef 2)
  %13 = load ptr, ptr getelementptr inbounds nuw (%struct._zend_output_globals, ptr @output_globals, i32 0, i32 1), align 8, !tbaa !29
  %14 = call i32 @php_output_handler_op(ptr noundef %13, ptr noundef %2)
  call void @php_output_context_dtor(ptr noundef %2)
  store i32 0, ptr %1, align 4
  store i32 1, ptr %3, align 4
  br label %16

15:                                               ; preds = %6, %0
  store i32 -1, ptr %1, align 4
  store i32 1, ptr %3, align 4
  br label %16

16:                                               ; preds = %15, %12
  call void @llvm.lifetime.end.p0(i64 72, ptr %2) #15
  %17 = load i32, ptr %1, align 4
  ret i32 %17
}

; Function Attrs: nounwind uwtable
define hidden void @zif_ob_clean(ptr noundef %0, ptr noundef %1) #0 {
  %3 = alloca ptr, align 8
  %4 = alloca ptr, align 8
  store ptr %0, ptr %3, align 8, !tbaa !120
  store ptr %1, ptr %4, align 8, !tbaa !10
  %5 = load ptr, ptr %3, align 8, !tbaa !120
  %6 = getelementptr inbounds nuw %struct._zend_execute_data, ptr %5, i32 0, i32 4
  %7 = getelementptr inbounds nuw %struct._zval_struct, ptr %6, i32 0, i32 2
  %8 = load i32, ptr %7, align 4, !tbaa !12
  %9 = icmp eq i32 %8, 0
  %10 = xor i1 %9, true
  %11 = xor i1 %10, true
  %12 = zext i1 %11 to i32
  %13 = sext i32 %12 to i64
  %14 = call i64 @llvm.expect.i64(i64 %13, i64 1)
  %15 = icmp ne i64 %14, 0
  br i1 %15, label %16, label %17

16:                                               ; preds = %2
  br label %18

17:                                               ; preds = %2
  call void @zend_wrong_parameters_none_error()
  br label %18

18:                                               ; preds = %17, %16
  %19 = phi i32 [ 0, %16 ], [ -1, %17 ]
  %20 = icmp eq i32 %19, -1
  br i1 %20, label %21, label %26

21:                                               ; preds = %18
  br label %22

22:                                               ; preds = %21
  %23 = load ptr, ptr getelementptr inbounds nuw (%struct._zend_executor_globals, ptr @executor_globals, i32 0, i32 54), align 8, !tbaa !121
  %24 = icmp ne ptr %23, null
  call void @llvm.assume(i1 %24)
  br label %60

25:                                               ; No predecessors!
  br label %26

26:                                               ; preds = %25, %18
  %27 = load ptr, ptr getelementptr inbounds nuw (%struct._zend_output_globals, ptr @output_globals, i32 0, i32 1), align 8, !tbaa !29
  %28 = icmp ne ptr %27, null
  br i1 %28, label %36, label %29

29:                                               ; preds = %26
  call void (ptr, i32, ptr, ...) @php_error_docref(ptr noundef @.str, i32 noundef 8, ptr noundef @.str.11)
  br label %30

30:                                               ; preds = %29
  br label %31

31:                                               ; preds = %30
  %32 = load ptr, ptr %4, align 8, !tbaa !10
  %33 = getelementptr inbounds nuw %struct._zval_struct, ptr %32, i32 0, i32 1
  store i32 2, ptr %33, align 8, !tbaa !12
  br label %34

34:                                               ; preds = %31
  br label %60

35:                                               ; No predecessors!
  br label %36

36:                                               ; preds = %35, %26
  %37 = call i32 @php_output_clean()
  %38 = icmp ne i32 0, %37
  br i1 %38, label %39, label %54

39:                                               ; preds = %36
  %40 = load ptr, ptr getelementptr inbounds nuw (%struct._zend_output_globals, ptr @output_globals, i32 0, i32 1), align 8, !tbaa !29
  %41 = getelementptr inbounds nuw %struct._php_output_handler, ptr %40, i32 0, i32 0
  %42 = load ptr, ptr %41, align 8, !tbaa !82
  %43 = getelementptr inbounds nuw %struct._zend_string, ptr %42, i32 0, i32 3
  %44 = getelementptr inbounds [1 x i8], ptr %43, i64 0, i64 0
  %45 = load ptr, ptr getelementptr inbounds nuw (%struct._zend_output_globals, ptr @output_globals, i32 0, i32 1), align 8, !tbaa !29
  %46 = getelementptr inbounds nuw %struct._php_output_handler, ptr %45, i32 0, i32 2
  %47 = load i32, ptr %46, align 4, !tbaa !83
  call void (ptr, i32, ptr, ...) @php_error_docref(ptr noundef @.str, i32 noundef 8, ptr noundef @.str.12, ptr noundef %44, i32 noundef %47)
  br label %48

48:                                               ; preds = %39
  br label %49

49:                                               ; preds = %48
  %50 = load ptr, ptr %4, align 8, !tbaa !10
  %51 = getelementptr inbounds nuw %struct._zval_struct, ptr %50, i32 0, i32 1
  store i32 2, ptr %51, align 8, !tbaa !12
  br label %52

52:                                               ; preds = %49
  br label %60

53:                                               ; No predecessors!
  br label %54

54:                                               ; preds = %53, %36
  br label %55

55:                                               ; preds = %54
  br label %56

56:                                               ; preds = %55
  %57 = load ptr, ptr %4, align 8, !tbaa !10
  %58 = getelementptr inbounds nuw %struct._zval_struct, ptr %57, i32 0, i32 1
  store i32 3, ptr %58, align 8, !tbaa !12
  br label %59

59:                                               ; preds = %56
  br label %60

60:                                               ; preds = %22, %34, %52, %59
  ret void
}