; Function Attrs: nounwind uwtable
define hidden void @zif_ob_clean(ptr noundef readonly captures(none) %0, ptr noundef writeonly captures(none) %1) local_unnamed_addr #0 {
  %3 = alloca %struct._php_output_context, align 8
  %4 = getelementptr inbounds nuw i8, ptr %0, i64 44
  %5 = load i32, ptr %4, align 4, !tbaa !8
  %.not = icmp eq i32 %5, 0
  br i1 %.not, label %.critedge, label %6, !prof !113

6:                                                ; preds = %2
  tail call void @zend_wrong_parameters_none_error() #22
  %7 = load ptr, ptr getelementptr inbounds nuw (i8, ptr @executor_globals, i64 960), align 8, !tbaa !112
  %8 = icmp ne ptr %7, null
  tail call void @llvm.assume(i1 %8)
  br label %41

.critedge:                                        ; preds = %2
  %9 = load ptr, ptr getelementptr inbounds nuw (i8, ptr @output_globals, i64 24), align 8, !tbaa !46
  %.not4 = icmp eq ptr %9, null
  br i1 %.not4, label %10, label %12

10:                                               ; preds = %.critedge
  tail call void (ptr, i32, ptr, ...) @php_error_docref(ptr noundef nonnull @.str, i32 noundef 8, ptr noundef nonnull @.str.11) #22
  %11 = getelementptr inbounds nuw i8, ptr %1, i64 8
  store i32 2, ptr %11, align 8, !tbaa !8
  br label %41

12:                                               ; preds = %.critedge
  call void @llvm.lifetime.start.p0(i64 72, ptr nonnull %3) #22
  %13 = getelementptr inbounds nuw i8, ptr %9, i64 8
  %14 = load i32, ptr %13, align 8, !tbaa !54
  %15 = and i32 %14, 16
  %.not2.i = icmp eq i32 %15, 0
  br i1 %.not2.i, label %33, label %16

16:                                               ; preds = %12
  call void @llvm.memset.p0.i64(ptr noundef nonnull align 8 dereferenceable(72) %3, i8 0, i64 72, i1 false)
  store i32 2, ptr %3, align 8, !tbaa !49
  %17 = call fastcc i32 @php_output_handler_op(ptr noundef nonnull %9, ptr noundef nonnull %3)
  %18 = getelementptr inbounds nuw i8, ptr %3, i64 8
  %19 = getelementptr inbounds nuw i8, ptr %3, i64 32
  %20 = load i32, ptr %19, align 8
  %21 = and i32 %20, 1
  %.not.i.i = icmp eq i32 %21, 0
  br i1 %.not.i.i, label %25, label %22

22:                                               ; preds = %16
  %23 = load ptr, ptr %18, align 8, !tbaa !52
  %.not9.i.i = icmp eq ptr %23, null
  br i1 %.not9.i.i, label %25, label %24

24:                                               ; preds = %22
  call void @_efree(ptr noundef nonnull %23) #22
  store ptr null, ptr %18, align 8, !tbaa !52
  br label %25

25:                                               ; preds = %24, %22, %16
  %26 = getelementptr inbounds nuw i8, ptr %3, i64 64
  %27 = load i32, ptr %26, align 8
  %28 = and i32 %27, 1
  %.not10.i.i = icmp eq i32 %28, 0
  br i1 %.not10.i.i, label %39, label %29

29:                                               ; preds = %25
  %30 = getelementptr inbounds nuw i8, ptr %3, i64 40
  %31 = load ptr, ptr %30, align 8, !tbaa !56
  %.not11.i.i = icmp eq ptr %31, null
  br i1 %.not11.i.i, label %39, label %32

32:                                               ; preds = %29
  call void @_efree(ptr noundef nonnull %31) #22
  br label %39

33:                                               ; preds = %12
  call void @llvm.lifetime.end.p0(i64 72, ptr nonnull %3) #22
  %34 = load ptr, ptr %9, align 8, !tbaa !78
  %35 = getelementptr inbounds nuw i8, ptr %34, i64 24
  %36 = getelementptr inbounds nuw i8, ptr %9, i64 12
  %37 = load i32, ptr %36, align 4, !tbaa !79
  tail call void (ptr, i32, ptr, ...) @php_error_docref(ptr noundef nonnull @.str, i32 noundef 8, ptr noundef nonnull @.str.12, ptr noundef nonnull %35, i32 noundef %37) #22
  %38 = getelementptr inbounds nuw i8, ptr %1, i64 8
  store i32 2, ptr %38, align 8, !tbaa !8
  br label %41

39:                                               ; preds = %25, %29, %32
  call void @llvm.lifetime.end.p0(i64 72, ptr nonnull %3) #22
  %40 = getelementptr inbounds nuw i8, ptr %1, i64 8
  store i32 3, ptr %40, align 8, !tbaa !8
  br label %41

41:                                               ; preds = %39, %33, %10, %6
  ret void
}